target datalayout = "e-m:e-p270:32:32-p271:32:32-p272:64:64-i64:64-i128:128-f80:128-n8:16:32:64-S128"
target triple = "x86_64-pc-linux-gnu"

%class.LogTagSet = type { ptr, i64, [5 x i32], [4 x i8], %class.LogOutputList, %class.LogDecorators, ptr }
%class.LogOutputList = type <{ [6 x ptr], i32, [4 x i8] }>
%class.LogDecorators = type { i32 }

@.str.8 = private unnamed_addr constant [68 x i8] c"Heap: %lu%s reserved, %lu%s (%.2f%%) committed, %lu%s (%.2f%%) used\00", align 1
@.str.9 = private unnamed_addr constant [23 x i8] c"Heap: no reliable data\00", align 1
@_ZN16LogTagSetMappingILN6LogTag4typeE49ELS1_0ELS1_0ELS1_0ELS1_0ELS1_0EE7_tagsetE = linkonce_odr hidden global %class.LogTagSet zeroinitializer, comdat, align 8
@.str.14 = private unnamed_addr constant [2 x i8] c"G\00", align 1
@.str.15 = private unnamed_addr constant [2 x i8] c"M\00", align 1
@.str.16 = private unnamed_addr constant [2 x i8] c"K\00", align 1
@.str.17 = private unnamed_addr constant [2 x i8] c"B\00", align 1

; Function Attrs: mustprogress nounwind uwtable
define linkonce_odr hidden noundef zeroext i1 @_ZNK13LogOutputList8is_levelEN8LogLevel4typeE(ptr noundef nonnull align 8 dereferenceable(52) %0, i32 noundef %1) #1 comdat align 2 {
  %3 = alloca ptr, align 8
  %4 = alloca i32, align 4
  store ptr %0, ptr %3, align 8
  store i32 %1, ptr %4, align 4
  %5 = load ptr, ptr %3, align 8
  %6 = getelementptr inbounds %class.LogOutputList, ptr %5, i32 0, i32 0
  %7 = load i32, ptr %4, align 4
  %8 = zext i32 %7 to i64
  %9 = getelementptr inbounds [6 x ptr], ptr %6, i64 0, i64 %8
  %10 = load volatile ptr, ptr %9, align 8
  %11 = icmp ne ptr %10, null
  ret i1 %11
}

; Function Attrs: mustprogress nounwind uwtable
define linkonce_odr hidden noundef zeroext i1 @_ZNK9LogTagSet8is_levelEN8LogLevel4typeE(ptr noundef nonnull align 8 dereferenceable(112) %0, i32 noundef %1) #1 comdat align 2 {
  %3 = alloca ptr, align 8
  %4 = alloca i32, align 4
  store ptr %0, ptr %3, align 8
  store i32 %1, ptr %4, align 4
  %5 = load ptr, ptr %3, align 8
  %6 = getelementptr inbounds %class.LogTagSet, ptr %5, i32 0, i32 4
  %7 = load i32, ptr %4, align 4
  %8 = call noundef zeroext i1 @_ZNK13LogOutputList8is_levelEN8LogLevel4typeE(ptr noundef nonnull align 8 dereferenceable(52) %6, i32 noundef %7)
  ret i1 %8
}

; Function Attrs: mustprogress nounwind uwtable
define linkonce_odr hidden noundef nonnull align 8 dereferenceable(112) ptr @_ZN16LogTagSetMappingILN6LogTag4typeE49ELS1_0ELS1_0ELS1_0ELS1_0ELS1_0EE6tagsetEv() #1 comdat align 2 {
  ret ptr @_ZN16LogTagSetMappingILN6LogTag4typeE49ELS1_0ELS1_0ELS1_0ELS1_0ELS1_0EE7_tagsetE
}

; Function Attrs: mustprogress nounwind uwtable
define linkonce_odr hidden noundef ptr @_Z25proper_unit_for_byte_sizem(i64 noundef %0) #1 comdat {
  %2 = alloca ptr, align 8
  %3 = alloca i64, align 8
  store i64 %0, ptr %3, align 8
  %4 = load i64, ptr %3, align 8
  %5 = icmp uge i64 %4, 107374182400
  br i1 %5, label %6, label %7

6:                                                ; preds = %1
  store ptr @.str.14, ptr %2, align 8
  br label %16

7:                                                ; preds = %1
  %8 = load i64, ptr %3, align 8
  %9 = icmp uge i64 %8, 104857600
  br i1 %9, label %10, label %11

10:                                               ; preds = %7
  store ptr @.str.15, ptr %2, align 8
  br label %16

11:                                               ; preds = %7
  %12 = load i64, ptr %3, align 8
  %13 = icmp uge i64 %12, 102400
  br i1 %13, label %14, label %15

14:                                               ; preds = %11
  store ptr @.str.16, ptr %2, align 8
  br label %16

15:                                               ; preds = %11
  store ptr @.str.17, ptr %2, align 8
  br label %16

16:                                               ; preds = %15, %14, %10, %6
  %17 = load ptr, ptr %2, align 8
  ret ptr %17
}

; Function Attrs: mustprogress nounwind uwtable
define linkonce_odr hidden noundef i64 @_Z24byte_size_in_proper_unitImET_S0_(i64 noundef %0) #1 comdat {
  %2 = alloca i64, align 8
  %3 = alloca i64, align 8
  store i64 %0, ptr %3, align 8
  %4 = load i64, ptr %3, align 8
  %5 = icmp uge i64 %4, 107374182400
  br i1 %5, label %6, label %9

6:                                                ; preds = %1
  %7 = load i64, ptr %3, align 8
  %8 = udiv i64 %7, 1073741824
  store i64 %8, ptr %2, align 8
  br label %23

9:                                                ; preds = %1
  %10 = load i64, ptr %3, align 8
  %11 = icmp uge i64 %10, 104857600
  br i1 %11, label %12, label %15

12:                                               ; preds = %9
  %13 = load i64, ptr %3, align 8
  %14 = udiv i64 %13, 1048576
  store i64 %14, ptr %2, align 8
  br label %23

15:                                               ; preds = %9
  %16 = load i64, ptr %3, align 8
  %17 = icmp uge i64 %16, 102400
  br i1 %17, label %18, label %21

18:                                               ; preds = %15
  %19 = load i64, ptr %3, align 8
  %20 = udiv i64 %19, 1024
  store i64 %20, ptr %2, align 8
  br label %23

21:                                               ; preds = %15
  %22 = load i64, ptr %3, align 8
  store i64 %22, ptr %2, align 8
  br label %23

23:                                               ; preds = %21, %18, %12, %6
  %24 = load i64, ptr %2, align 8
  ret i64 %24
}

; Function Attrs: mustprogress nounwind uwtable
define linkonce_odr hidden noundef zeroext i1 @_ZN7LogImplILN6LogTag4typeE49ELS1_0ELS1_0ELS1_0ELS1_0ELS1_0EE8is_levelEN8LogLevel4typeE(i32 noundef %0) #1 comdat align 2 {
  %2 = alloca i32, align 4
  store i32 %0, ptr %2, align 4
  %3 = call noundef nonnull align 8 dereferenceable(112) ptr @_ZN16LogTagSetMappingILN6LogTag4typeE49ELS1_0ELS1_0ELS1_0ELS1_0ELS1_0EE6tagsetEv()
  %4 = load i32, ptr %2, align 4
  %5 = call noundef zeroext i1 @_ZNK9LogTagSet8is_levelEN8LogLevel4typeE(ptr noundef nonnull align 8 dereferenceable(112) %3, i32 noundef %4)
  ret i1 %5
}

; Function Attrs: mustprogress nounwind uwtable
define hidden void @_ZNK11EpsilonHeap15print_heap_infoEm(ptr noundef nonnull align 8 dereferenceable(480) %0, i64 noundef %1) #1 align 2 {
  %3 = alloca ptr, align 8
  %4 = alloca i64, align 8
  %5 = alloca i64, align 8
  %6 = alloca i64, align 8
  store ptr %0, ptr %3, align 8
  store i64 %1, ptr %4, align 8
  %7 = load ptr, ptr %3, align 8
  %8 = load ptr, ptr %7, align 8
  %9 = getelementptr inbounds ptr, ptr %8, i64 15
  %10 = load ptr, ptr %9, align 8
  %11 = call noundef i64 %10(ptr noundef nonnull align 8 dereferenceable(480) %7)
  store i64 %11, ptr %5, align 8
  %12 = load ptr, ptr %7, align 8
  %13 = getelementptr inbounds ptr, ptr %12, i64 11
  %14 = load ptr, ptr %13, align 8
  %15 = call noundef i64 %14(ptr noundef nonnull align 8 dereferenceable(480) %7)
  store i64 %15, ptr %6, align 8
  %16 = load i64, ptr %5, align 8
  %17 = icmp ne i64 %16, 0
  br i1 %17, label %18, label %47

18:                                               ; preds = %2
  %19 = call noundef zeroext i1 @_ZN7LogImplILN6LogTag4typeE49ELS1_0ELS1_0ELS1_0ELS1_0ELS1_0EE8is_levelEN8LogLevel4typeE(i32 noundef 3)
  br i1 %19, label %21, label %20

20:                                               ; preds = %18
  br label %46

21:                                               ; preds = %18
  %22 = load i64, ptr %5, align 8
  %23 = call noundef i64 @_Z24byte_size_in_proper_unitImET_S0_(i64 noundef %22)
  %24 = load i64, ptr %5, align 8
  %25 = call noundef ptr @_Z25proper_unit_for_byte_sizem(i64 noundef %24)
  %26 = load i64, ptr %6, align 8
  %27 = call noundef i64 @_Z24byte_size_in_proper_unitImET_S0_(i64 noundef %26)
  %28 = load i64, ptr %6, align 8
  %29 = call noundef ptr @_Z25proper_unit_for_byte_sizem(i64 noundef %28)
  %30 = load i64, ptr %6, align 8
  %31 = uitofp i64 %30 to double
  %32 = fmul double %31, 1.000000e+02
  %33 = load i64, ptr %5, align 8
  %34 = uitofp i64 %33 to double
  %35 = fdiv double %32, %34
  %36 = load i64, ptr %4, align 8
  %37 = call noundef i64 @_Z24byte_size_in_proper_unitImET_S0_(i64 noundef %36)
  %38 = load i64, ptr %4, align 8
  %39 = call noundef ptr @_Z25proper_unit_for_byte_sizem(i64 noundef %38)
  %40 = load i64, ptr %4, align 8
  %41 = uitofp i64 %40 to double
  %42 = fmul double %41, 1.000000e+02
  %43 = load i64, ptr %5, align 8
  %44 = uitofp i64 %43 to double
  %45 = fdiv double %42, %44
  call void (ptr, ...) @_ZN7LogImplILN6LogTag4typeE49ELS1_0ELS1_0ELS1_0ELS1_0ELS1_0EE5writeILN8LogLevel4typeE3EEEvPKcz(ptr noundef @.str.8, i64 noundef %23, ptr noundef %25, i64 noundef %27, ptr noundef %29, double noundef %35, i64 noundef %37, ptr noundef %39, double noundef %45)
  br label %46

46:                                               ; preds = %21, %20
  br label %52

47:                                               ; preds = %2
  %48 = call noundef zeroext i1 @_ZN7LogImplILN6LogTag4typeE49ELS1_0ELS1_0ELS1_0ELS1_0ELS1_0EE8is_levelEN8LogLevel4typeE(i32 noundef 3)
  br i1 %48, label %50, label %49

49:                                               ; preds = %47
  br label %51

50:                                               ; preds = %47
  call void (ptr, ...) @_ZN7LogImplILN6LogTag4typeE49ELS1_0ELS1_0ELS1_0ELS1_0ELS1_0EE5writeILN8LogLevel4typeE3EEEvPKcz(ptr noundef @.str.9)
  br label %51

51:                                               ; preds = %50, %49
  br label %52

52:                                               ; preds = %51, %46
  ret void
}