; Function Attrs: mustprogress nounwind uwtable
define hidden void @_ZNK11EpsilonHeap15print_heap_infoEm(ptr noundef nonnull align 8 dereferenceable(480) %0, i64 noundef %1) local_unnamed_addr #0 align 2 {
  %3 = load ptr, ptr %0, align 8
  %4 = getelementptr inbounds i8, ptr %3, i64 120
  %5 = load ptr, ptr %4, align 8
  %6 = tail call noundef i64 %5(ptr noundef nonnull align 8 dereferenceable(480) %0) #8
  %7 = load ptr, ptr %0, align 8
  %8 = getelementptr inbounds i8, ptr %7, i64 88
  %9 = load ptr, ptr %8, align 8
  %10 = tail call noundef i64 %9(ptr noundef nonnull align 8 dereferenceable(480) %0) #8
  %.not = icmp eq i64 %6, 0
  %11 = load volatile ptr, ptr getelementptr inbounds (i8, ptr @_ZN16LogTagSetMappingILN6LogTag4typeE49ELS1_0ELS1_0ELS1_0ELS1_0ELS1_0EE7_tagsetE, i64 64), align 8
  %.not39 = icmp eq ptr %11, null
  br i1 %.not, label %45, label %12

12:                                               ; preds = %2
  br i1 %.not39, label %47, label %13

13:                                               ; preds = %12
  %14 = icmp ugt i64 %6, 107374182399
  br i1 %14, label %_Z24byte_size_in_proper_unitImET_S0_.exit, label %15

15:                                               ; preds = %13
  %16 = icmp ugt i64 %6, 104857599
  br i1 %16, label %.thread, label %19

.thread:                                          ; preds = %15
  %17 = lshr i64 %6, 20
  br label %_Z25proper_unit_for_byte_sizem.exit

_Z24byte_size_in_proper_unitImET_S0_.exit:        ; preds = %13
  %18 = lshr i64 %6, 30
  br label %_Z25proper_unit_for_byte_sizem.exit

19:                                               ; preds = %15
  %20 = icmp ugt i64 %6, 102399
  %21 = lshr i64 %6, 10
  %spec.select.i = select i1 %20, i64 %21, i64 %6
  %.str.16..str.17.i = select i1 %20, ptr @.str.16, ptr @.str.17
  br label %_Z25proper_unit_for_byte_sizem.exit

_Z25proper_unit_for_byte_sizem.exit:              ; preds = %.thread, %_Z24byte_size_in_proper_unitImET_S0_.exit, %19
  %.0.i26 = phi i64 [ %18, %_Z24byte_size_in_proper_unitImET_S0_.exit ], [ %spec.select.i, %19 ], [ %17, %.thread ]
  %.0.i11 = phi ptr [ @.str.14, %_Z24byte_size_in_proper_unitImET_S0_.exit ], [ %.str.16..str.17.i, %19 ], [ @.str.15, %.thread ]
  %22 = icmp ugt i64 %10, 107374182399
  br i1 %22, label %_Z24byte_size_in_proper_unitImET_S0_.exit14, label %23

23:                                               ; preds = %_Z25proper_unit_for_byte_sizem.exit
  %24 = icmp ugt i64 %10, 104857599
  br i1 %24, label %.thread31, label %27

.thread31:                                        ; preds = %23
  %25 = lshr i64 %10, 20
  br label %_Z25proper_unit_for_byte_sizem.exit17

_Z24byte_size_in_proper_unitImET_S0_.exit14:      ; preds = %_Z25proper_unit_for_byte_sizem.exit
  %26 = lshr i64 %10, 30
  br label %_Z25proper_unit_for_byte_sizem.exit17

27:                                               ; preds = %23
  %28 = icmp ugt i64 %10, 102399
  %29 = lshr i64 %10, 10
  %spec.select.i12 = select i1 %28, i64 %29, i64 %10
  %.str.16..str.17.i15 = select i1 %28, ptr @.str.16, ptr @.str.17
  br label %_Z25proper_unit_for_byte_sizem.exit17

_Z25proper_unit_for_byte_sizem.exit17:            ; preds = %.thread31, %_Z24byte_size_in_proper_unitImET_S0_.exit14, %27
  %.0.i1330 = phi i64 [ %26, %_Z24byte_size_in_proper_unitImET_S0_.exit14 ], [ %spec.select.i12, %27 ], [ %25, %.thread31 ]
  %.0.i16 = phi ptr [ @.str.14, %_Z24byte_size_in_proper_unitImET_S0_.exit14 ], [ %.str.16..str.17.i15, %27 ], [ @.str.15, %.thread31 ]
  %30 = uitofp i64 %10 to double
  %31 = fmul double %30, 1.000000e+02
  %32 = uitofp i64 %6 to double
  %33 = fdiv double %31, %32
  %34 = icmp ugt i64 %1, 107374182399
  br i1 %34, label %_Z24byte_size_in_proper_unitImET_S0_.exit20, label %35

35:                                               ; preds = %_Z25proper_unit_for_byte_sizem.exit17
  %36 = icmp ugt i64 %1, 104857599
  br i1 %36, label %.thread36, label %39

.thread36:                                        ; preds = %35
  %37 = lshr i64 %1, 20
  br label %_Z25proper_unit_for_byte_sizem.exit23

_Z24byte_size_in_proper_unitImET_S0_.exit20:      ; preds = %_Z25proper_unit_for_byte_sizem.exit17
  %38 = lshr i64 %1, 30
  br label %_Z25proper_unit_for_byte_sizem.exit23

39:                                               ; preds = %35
  %40 = icmp ugt i64 %1, 102399
  %41 = lshr i64 %1, 10
  %spec.select.i18 = select i1 %40, i64 %41, i64 %1
  %.str.16..str.17.i21 = select i1 %40, ptr @.str.16, ptr @.str.17
  br label %_Z25proper_unit_for_byte_sizem.exit23

_Z25proper_unit_for_byte_sizem.exit23:            ; preds = %.thread36, %_Z24byte_size_in_proper_unitImET_S0_.exit20, %39
  %.0.i1935 = phi i64 [ %38, %_Z24byte_size_in_proper_unitImET_S0_.exit20 ], [ %spec.select.i18, %39 ], [ %37, %.thread36 ]
  %.0.i22 = phi ptr [ @.str.14, %_Z24byte_size_in_proper_unitImET_S0_.exit20 ], [ %.str.16..str.17.i21, %39 ], [ @.str.15, %.thread36 ]
  %42 = uitofp i64 %1 to double
  %43 = fmul double %42, 1.000000e+02
  %44 = fdiv double %43, %32
  tail call void (ptr, ...) @_ZN7LogImplILN6LogTag4typeE49ELS1_0ELS1_0ELS1_0ELS1_0ELS1_0EE5writeILN8LogLevel4typeE3EEEvPKcz(ptr noundef nonnull @.str.8, i64 noundef %.0.i26, ptr noundef nonnull %.0.i11, i64 noundef %.0.i1330, ptr noundef nonnull %.0.i16, double noundef %33, i64 noundef %.0.i1935, ptr noundef nonnull %.0.i22, double noundef %44)
  br label %47

45:                                               ; preds = %2
  br i1 %.not39, label %47, label %46

46:                                               ; preds = %45
  tail call void (ptr, ...) @_ZN7LogImplILN6LogTag4typeE49ELS1_0ELS1_0ELS1_0ELS1_0ELS1_0EE5writeILN8LogLevel4typeE3EEEvPKcz(ptr noundef nonnull @.str.9)
  br label %47

47:                                               ; preds = %46, %45, %_Z25proper_unit_for_byte_sizem.exit23, %12
  ret void
}